; Function Attrs: nounwind uwtable
define internal void @mappingproxy_dealloc(ptr noundef %0) #0 {
  %2 = getelementptr i8, ptr %0, i64 -16
  %3 = getelementptr i8, ptr %0, i64 -8
  %.val.i = load i64, ptr %3, align 8, !tbaa !4
  %4 = and i64 %.val.i, -4
  %5 = inttoptr i64 %4 to ptr
  %.val9.i = load i64, ptr %2, align 8, !tbaa !9
  %6 = and i64 %.val9.i, -4
  %7 = inttoptr i64 %6 to ptr
  %8 = load i64, ptr %5, align 8, !tbaa !9
  %9 = and i64 %8, 3
  %10 = or disjoint i64 %9, %6
  store i64 %10, ptr %5, align 8, !tbaa !9
  %11 = getelementptr inbounds nuw i8, ptr %7, i64 8
  %12 = load i64, ptr %11, align 8, !tbaa !4
  %13 = and i64 %12, 3
  %14 = or disjoint i64 %13, %4
  store i64 %14, ptr %11, align 8, !tbaa !4
  store i64 0, ptr %2, align 8, !tbaa !9
  %15 = load i64, ptr %3, align 8, !tbaa !4
  %16 = and i64 %15, 1
  store i64 %16, ptr %3, align 8, !tbaa !4
  %17 = getelementptr inbounds nuw i8, ptr %0, i64 16
  %18 = load ptr, ptr %17, align 8, !tbaa !148
  %19 = load i32, ptr %18, align 8, !tbaa !16
  %.not.i = icmp sgt i32 %19, -1
  br i1 %.not.i, label %20, label %Py_DECREF.exit

20:                                               ; preds = %1
  %21 = add nsw i32 %19, -1
  store i32 %21, ptr %18, align 8, !tbaa !16
  %22 = icmp eq i32 %21, 0
  br i1 %22, label %23, label %Py_DECREF.exit

23:                                               ; preds = %20
  tail call void @_Py_Dealloc(ptr noundef nonnull %18) #9
  br label %Py_DECREF.exit

Py_DECREF.exit:                                   ; preds = %1, %20, %23
  tail call void @PyObject_GC_Del(ptr noundef nonnull %0) #9
  ret void
}